; Function Attrs: inlinehint mustprogress optsize uwtable
define internal noundef ptr @"_ZZN8nanobind6detail11func_createILb0ELb1EZL26nanobind_init_test_stl_extRNS_7module_EE4$_26St6vectorI7MovableSaIS6_EEJETpTnmJEJNS_5scopeENS_4nameEEEEP7_objectOT1_PFT2_DpT3_ESt16integer_sequenceImJXspT4_EEEDpRKT5_ENUlPvPSC_PhNS_9rv_policyEPNS0_12cleanup_listEE_8__invokeESQ_SR_SS_ST_SV_"(ptr readnone captures(none) %0, ptr readnone captures(none) %1, ptr readnone captures(none) %2, i32 noundef %3, ptr noundef %4) #11 align 2 personality ptr @__gxx_personality_v0 {
  %6 = alloca i32, align 4
  %7 = alloca %"class.std::vector", align 8
  call void @llvm.lifetime.start.p0(i64 24, ptr nonnull %7) #28
  tail call void @llvm.experimental.noalias.scope.decl(metadata !265)
  call void @llvm.memset.p0.i64(ptr noundef nonnull align 8 dereferenceable(24) %7, i8 0, i64 24, i1 false), !alias.scope !265
  invoke void @_ZNSt6vectorI7MovableSaIS0_EE7reserveEm(ptr noundef nonnull align 8 dereferenceable(24) %7, i64 noundef 10) #30
          to label %8 unwind label %9

8:                                                ; preds = %5
  call void @llvm.lifetime.start.p0(i64 4, ptr nonnull %6) #28, !noalias !265
  store i32 0, ptr %6, align 4, !tbaa !128, !noalias !265
  br label %11

9:                                                ; preds = %5
  %10 = landingpad { ptr, i32 }
          cleanup
  br label %19

11:                                               ; preds = %13, %8
  %12 = invoke noundef nonnull align 4 dereferenceable(4) ptr @_ZNSt6vectorI7MovableSaIS0_EE12emplace_backIJRiEEERS0_DpOT_(ptr noundef nonnull align 8 dereferenceable(24) %7, ptr noundef nonnull align 4 dereferenceable(4) %6) #30
          to label %13 unwind label %17

13:                                               ; preds = %11
  %14 = load i32, ptr %6, align 4, !tbaa !128, !noalias !265
  %15 = add nsw i32 %14, 1
  store i32 %15, ptr %6, align 4, !tbaa !128, !noalias !265
  %16 = icmp slt i32 %14, 9
  br i1 %16, label %11, label %"_ZZL26nanobind_init_test_stl_extRN8nanobind7module_EENK4$_26clEv.exit", !llvm.loop !268

17:                                               ; preds = %11
  %18 = landingpad { ptr, i32 }
          cleanup
  call void @llvm.lifetime.end.p0(i64 4, ptr nonnull %6) #28, !noalias !265
  br label %19

common.resume:                                    ; preds = %21, %19
  %common.resume.op = phi { ptr, i32 } [ %.pn.i, %19 ], [ %22, %21 ]
  resume { ptr, i32 } %common.resume.op

19:                                               ; preds = %17, %9
  %.pn.i = phi { ptr, i32 } [ %18, %17 ], [ %10, %9 ]
  call void @_ZNSt6vectorI7MovableSaIS0_EED2Ev(ptr noundef nonnull align 8 dereferenceable(24) %7) #27
  br label %common.resume

"_ZZL26nanobind_init_test_stl_extRN8nanobind7module_EENK4$_26clEv.exit": ; preds = %13
  call void @llvm.lifetime.end.p0(i64 4, ptr nonnull %6) #28, !noalias !265
  %20 = invoke ptr @_ZN8nanobind6detail11list_casterISt6vectorI7MovableSaIS3_EES3_E8from_cppIS5_EENS_6handleEOT_NS_9rv_policyEPNS0_12cleanup_listE(ptr noundef nonnull align 8 dereferenceable(24) %7, i32 noundef %3, ptr noundef %4) #30
          to label %"_ZZN8nanobind6detail11func_createILb0ELb1EZL26nanobind_init_test_stl_extRNS_7module_EE4$_26St6vectorI7MovableSaIS6_EEJETpTnmJEJNS_5scopeENS_4nameEEEEP7_objectOT1_PFT2_DpT3_ESt16integer_sequenceImJXspT4_EEEDpRKT5_ENKUlPvPSC_PhNS_9rv_policyEPNS0_12cleanup_listEE_clESQ_SR_SS_ST_SV_.exit" unwind label %21

21:                                               ; preds = %"_ZZL26nanobind_init_test_stl_extRN8nanobind7module_EENK4$_26clEv.exit"
  %22 = landingpad { ptr, i32 }
          cleanup
  call void @_ZNSt6vectorI7MovableSaIS0_EED2Ev(ptr noundef nonnull align 8 dereferenceable(24) %7) #27
  call void @llvm.lifetime.end.p0(i64 24, ptr nonnull %7) #28
  br label %common.resume

"_ZZN8nanobind6detail11func_createILb0ELb1EZL26nanobind_init_test_stl_extRNS_7module_EE4$_26St6vectorI7MovableSaIS6_EEJETpTnmJEJNS_5scopeENS_4nameEEEEP7_objectOT1_PFT2_DpT3_ESt16integer_sequenceImJXspT4_EEEDpRKT5_ENKUlPvPSC_PhNS_9rv_policyEPNS0_12cleanup_listEE_clESQ_SR_SS_ST_SV_.exit": ; preds = %"_ZZL26nanobind_init_test_stl_extRN8nanobind7module_EENK4$_26clEv.exit"
  call void @_ZNSt6vectorI7MovableSaIS0_EED2Ev(ptr noundef nonnull align 8 dereferenceable(24) %7) #27
  call void @llvm.lifetime.end.p0(i64 24, ptr nonnull %7) #28
  ret ptr %20
}